target datalayout = "e-m:e-p270:32:32-p271:32:32-p272:64:64-i64:64-i128:128-f80:128-n8:16:32:64-S128"
target triple = "x86_64-pc-linux-gnu"

@H5PL_num_paths_g = internal global i32 0, align 4
@H5PL_path_capacity_g = internal global i32 16, align 4
@H5PL_paths_g = internal global ptr null, align 8
@.str = private unnamed_addr constant [102 x i8] c"generated/home/dtcxzyw/WorkSpace/Projects/compilers/llvm-opt-benchmark/bench/hdf5/hdf5/src/H5PLpath.c\00", align 1
@H5E_PLUGIN_g = external global i64, align 8
@H5E_CANTALLOC_g = external global i64, align 8
@__func__.H5PL__insert_at = private unnamed_addr constant [16 x i8] c"H5PL__insert_at\00", align 1
@.str.16 = private unnamed_addr constant [24 x i8] c"can't expand path table\00", align 1
@.str.17 = private unnamed_addr constant [33 x i8] c"can't make internal copy of path\00", align 1
@H5E_NOSPACE_g = external global i64, align 8
@.str.18 = private unnamed_addr constant [52 x i8] c"unable to make space in the table for the new entry\00", align 1
@__func__.H5PL__expand_path_table = private unnamed_addr constant [24 x i8] c"H5PL__expand_path_table\00", align 1
@.str.19 = private unnamed_addr constant [51 x i8] c"allocating additional memory for path table failed\00", align 1

; Function Attrs: nounwind uwtable
define internal i32 @H5PL__make_space_at(i32 noundef %0) #0 {
  %2 = alloca i32, align 4
  %3 = alloca i32, align 4
  %4 = alloca i32, align 4
  store i32 %0, ptr %2, align 4
  store i32 0, ptr %4, align 4
  %5 = load i32, ptr @H5PL_num_paths_g, align 4
  store i32 %5, ptr %3, align 4
  br label %6

6:                                                ; preds = %21, %1
  %7 = load i32, ptr %3, align 4
  %8 = load i32, ptr %2, align 4
  %9 = icmp ugt i32 %7, %8
  br i1 %9, label %10, label %24

10:                                               ; preds = %6
  %11 = load ptr, ptr @H5PL_paths_g, align 8
  %12 = load i32, ptr %3, align 4
  %13 = sub i32 %12, 1
  %14 = zext i32 %13 to i64
  %15 = getelementptr inbounds ptr, ptr %11, i64 %14
  %16 = load ptr, ptr %15, align 8
  %17 = load ptr, ptr @H5PL_paths_g, align 8
  %18 = load i32, ptr %3, align 4
  %19 = zext i32 %18 to i64
  %20 = getelementptr inbounds ptr, ptr %17, i64 %19
  store ptr %16, ptr %20, align 8
  br label %21

21:                                               ; preds = %10
  %22 = load i32, ptr %3, align 4
  %23 = add i32 %22, -1
  store i32 %23, ptr %3, align 4
  br label %6

24:                                               ; preds = %6
  %25 = load ptr, ptr @H5PL_paths_g, align 8
  %26 = load i32, ptr %2, align 4
  %27 = zext i32 %26 to i64
  %28 = getelementptr inbounds ptr, ptr %25, i64 %27
  store ptr null, ptr %28, align 8
  %29 = load i32, ptr %4, align 4
  ret i32 %29
}

; Function Attrs: nounwind uwtable
define internal i32 @H5PL__expand_path_table() #0 {
  %1 = alloca i32, align 4
  %2 = alloca i8, align 1
  store i32 0, ptr %1, align 4
  store i8 0, ptr %2, align 1
  %3 = load i32, ptr @H5PL_path_capacity_g, align 4
  %4 = add i32 %3, 16
  store i32 %4, ptr @H5PL_path_capacity_g, align 4
  %5 = load ptr, ptr @H5PL_paths_g, align 8
  %6 = load i32, ptr @H5PL_path_capacity_g, align 4
  %7 = zext i32 %6 to i64
  %8 = mul i64 %7, 8
  %9 = call ptr @H5MM_realloc(ptr noundef %5, i64 noundef %8)
  store ptr %9, ptr @H5PL_paths_g, align 8
  %10 = icmp eq ptr null, %9
  br i1 %10, label %11, label %26

11:                                               ; preds = %0
  br label %12

12:                                               ; preds = %11
  br label %13

13:                                               ; preds = %12
  br label %14

14:                                               ; preds = %13
  %15 = load i64, ptr @H5E_PLUGIN_g, align 8
  %16 = load i64, ptr @H5E_CANTALLOC_g, align 8
  %17 = call i32 (ptr, ptr, i32, i64, i64, ptr, ...) @H5E_printf_stack(ptr noundef @.str, ptr noundef @__func__.H5PL__expand_path_table, i32 noundef 359, i64 noundef %15, i64 noundef %16, ptr noundef @.str.19)
  br label %18

18:                                               ; preds = %14
  store i8 1, ptr %2, align 1
  %19 = load i8, ptr %2, align 1
  %20 = trunc i8 %19 to i1
  %21 = zext i1 %20 to i8
  store i8 %21, ptr %2, align 1
  br label %22

22:                                               ; preds = %18
  br label %23

23:                                               ; preds = %22
  store i32 -1, ptr %1, align 4
  br label %31

24:                                               ; No predecessors!
  br label %25

25:                                               ; preds = %24
  br label %26

26:                                               ; preds = %25, %0
  %27 = load ptr, ptr @H5PL_paths_g, align 8
  %28 = load i32, ptr @H5PL_num_paths_g, align 4
  %29 = zext i32 %28 to i64
  %30 = getelementptr inbounds ptr, ptr %27, i64 %29
  call void @llvm.memset.p0.i64(ptr align 8 %30, i8 0, i64 128, i1 false)
  br label %31

31:                                               ; preds = %26, %23
  %32 = load i32, ptr %1, align 4
  %33 = icmp eq i32 -1, %32
  br i1 %33, label %34, label %37

34:                                               ; preds = %31
  %35 = load i32, ptr @H5PL_path_capacity_g, align 4
  %36 = sub i32 %35, 16
  store i32 %36, ptr @H5PL_path_capacity_g, align 4
  br label %37

37:                                               ; preds = %34, %31
  %38 = load i32, ptr %1, align 4
  ret i32 %38
}

; Function Attrs: nounwind uwtable
define internal i32 @H5PL__insert_at(ptr noundef %0, i32 noundef %1) #0 {
  %3 = alloca ptr, align 8
  %4 = alloca i32, align 4
  %5 = alloca ptr, align 8
  %6 = alloca i32, align 4
  %7 = alloca i8, align 1
  store ptr %0, ptr %3, align 8
  store i32 %1, ptr %4, align 4
  store ptr null, ptr %5, align 8
  store i32 0, ptr %6, align 4
  store i8 0, ptr %7, align 1
  %8 = load i32, ptr @H5PL_num_paths_g, align 4
  %9 = load i32, ptr @H5PL_path_capacity_g, align 4
  %10 = icmp eq i32 %8, %9
  br i1 %10, label %11, label %30

11:                                               ; preds = %2
  %12 = call i32 @H5PL__expand_path_table()
  %13 = icmp slt i32 %12, 0
  br i1 %13, label %14, label %29

14:                                               ; preds = %11
  br label %15

15:                                               ; preds = %14
  br label %16

16:                                               ; preds = %15
  br label %17

17:                                               ; preds = %16
  %18 = load i64, ptr @H5E_PLUGIN_g, align 8
  %19 = load i64, ptr @H5E_CANTALLOC_g, align 8
  %20 = call i32 (ptr, ptr, i32, i64, i64, ptr, ...) @H5E_printf_stack(ptr noundef @.str, ptr noundef @__func__.H5PL__insert_at, i32 noundef 117, i64 noundef %18, i64 noundef %19, ptr noundef @.str.16)
  br label %21

21:                                               ; preds = %17
  store i8 1, ptr %7, align 1
  %22 = load i8, ptr %7, align 1
  %23 = trunc i8 %22 to i1
  %24 = zext i1 %23 to i8
  store i8 %24, ptr %7, align 1
  br label %25

25:                                               ; preds = %21
  br label %26

26:                                               ; preds = %25
  store i32 -1, ptr %6, align 4
  br label %84

27:                                               ; No predecessors!
  br label %28

28:                                               ; preds = %27
  br label %29

29:                                               ; preds = %28, %11
  br label %30

30:                                               ; preds = %29, %2
  %31 = load ptr, ptr %3, align 8
  %32 = call noalias ptr @H5MM_strdup(ptr noundef %31)
  store ptr %32, ptr %5, align 8
  %33 = icmp eq ptr null, %32
  br i1 %33, label %34, label %49

34:                                               ; preds = %30
  br label %35

35:                                               ; preds = %34
  br label %36

36:                                               ; preds = %35
  br label %37

37:                                               ; preds = %36
  %38 = load i64, ptr @H5E_PLUGIN_g, align 8
  %39 = load i64, ptr @H5E_CANTALLOC_g, align 8
  %40 = call i32 (ptr, ptr, i32, i64, i64, ptr, ...) @H5E_printf_stack(ptr noundef @.str, ptr noundef @__func__.H5PL__insert_at, i32 noundef 121, i64 noundef %38, i64 noundef %39, ptr noundef @.str.17)
  br label %41

41:                                               ; preds = %37
  store i8 1, ptr %7, align 1
  %42 = load i8, ptr %7, align 1
  %43 = trunc i8 %42 to i1
  %44 = zext i1 %43 to i8
  store i8 %44, ptr %7, align 1
  br label %45

45:                                               ; preds = %41
  br label %46

46:                                               ; preds = %45
  store i32 -1, ptr %6, align 4
  br label %84

47:                                               ; No predecessors!
  br label %48

48:                                               ; preds = %47
  br label %49

49:                                               ; preds = %48, %30
  %50 = load ptr, ptr @H5PL_paths_g, align 8
  %51 = load i32, ptr %4, align 4
  %52 = zext i32 %51 to i64
  %53 = getelementptr inbounds ptr, ptr %50, i64 %52
  %54 = load ptr, ptr %53, align 8
  %55 = icmp ne ptr %54, null
  br i1 %55, label %56, label %76

56:                                               ; preds = %49
  %57 = load i32, ptr %4, align 4
  %58 = call i32 @H5PL__make_space_at(i32 noundef %57)
  %59 = icmp slt i32 %58, 0
  br i1 %59, label %60, label %75

60:                                               ; preds = %56
  br label %61

61:                                               ; preds = %60
  br label %62

62:                                               ; preds = %61
  br label %63

63:                                               ; preds = %62
  %64 = load i64, ptr @H5E_PLUGIN_g, align 8
  %65 = load i64, ptr @H5E_NOSPACE_g, align 8
  %66 = call i32 (ptr, ptr, i32, i64, i64, ptr, ...) @H5E_printf_stack(ptr noundef @.str, ptr noundef @__func__.H5PL__insert_at, i32 noundef 132, i64 noundef %64, i64 noundef %65, ptr noundef @.str.18)
  br label %67

67:                                               ; preds = %63
  store i8 1, ptr %7, align 1
  %68 = load i8, ptr %7, align 1
  %69 = trunc i8 %68 to i1
  %70 = zext i1 %69 to i8
  store i8 %70, ptr %7, align 1
  br label %71

71:                                               ; preds = %67
  br label %72

72:                                               ; preds = %71
  store i32 -1, ptr %6, align 4
  br label %84

73:                                               ; No predecessors!
  br label %74

74:                                               ; preds = %73
  br label %75

75:                                               ; preds = %74, %56
  br label %76

76:                                               ; preds = %75, %49
  %77 = load ptr, ptr %5, align 8
  %78 = load ptr, ptr @H5PL_paths_g, align 8
  %79 = load i32, ptr %4, align 4
  %80 = zext i32 %79 to i64
  %81 = getelementptr inbounds ptr, ptr %78, i64 %80
  store ptr %77, ptr %81, align 8
  %82 = load i32, ptr @H5PL_num_paths_g, align 4
  %83 = add i32 %82, 1
  store i32 %83, ptr @H5PL_num_paths_g, align 4
  br label %84

84:                                               ; preds = %76, %72, %46, %26
  %85 = load i32, ptr %6, align 4
  ret i32 %85
}