; Function Attrs: nounwind uwtable
define internal fastcc range(i32 -1, 1) i32 @H5PL__insert_at(ptr noundef %0, i32 noundef %1) unnamed_addr #0 {
  %3 = load i32, ptr @H5PL_num_paths_g, align 4
  %4 = load i32, ptr @H5PL_path_capacity_g, align 4
  %5 = icmp eq i32 %3, %4
  br i1 %5, label %6, label %25

6:                                                ; preds = %2
  %7 = add i32 %3, 16
  store i32 %7, ptr @H5PL_path_capacity_g, align 4
  %8 = load ptr, ptr @H5PL_paths_g, align 8
  %9 = zext i32 %7 to i64
  %10 = shl nuw nsw i64 %9, 3
  %11 = tail call ptr @H5MM_realloc(ptr noundef %8, i64 noundef %10) #13
  store ptr %11, ptr @H5PL_paths_g, align 8
  %12 = icmp eq ptr %11, null
  br i1 %12, label %16, label %H5PL__expand_path_table.exit

H5PL__expand_path_table.exit:                     ; preds = %6
  %13 = load i32, ptr @H5PL_num_paths_g, align 4
  %14 = zext i32 %13 to i64
  %15 = getelementptr inbounds ptr, ptr %11, i64 %14
  tail call void @llvm.memset.p0.i64(ptr noundef nonnull align 8 dereferenceable(128) %15, i8 0, i64 128, i1 false)
  br label %25

16:                                               ; preds = %6
  %17 = load i64, ptr @H5E_PLUGIN_g, align 8
  %18 = load i64, ptr @H5E_CANTALLOC_g, align 8
  %19 = tail call i32 (ptr, ptr, i32, i64, i64, ptr, ...) @H5E_printf_stack(ptr noundef nonnull @.str, ptr noundef nonnull @__func__.H5PL__expand_path_table, i32 noundef 359, i64 noundef %17, i64 noundef %18, ptr noundef nonnull @.str.19) #13
  %20 = load i32, ptr @H5PL_path_capacity_g, align 4
  %21 = add i32 %20, -16
  store i32 %21, ptr @H5PL_path_capacity_g, align 4
  %22 = load i64, ptr @H5E_PLUGIN_g, align 8
  %23 = load i64, ptr @H5E_CANTALLOC_g, align 8
  %24 = tail call i32 (ptr, ptr, i32, i64, i64, ptr, ...) @H5E_printf_stack(ptr noundef nonnull @.str, ptr noundef nonnull @__func__.H5PL__insert_at, i32 noundef 117, i64 noundef %22, i64 noundef %23, ptr noundef nonnull @.str.16) #13
  br label %45

25:                                               ; preds = %H5PL__expand_path_table.exit, %2
  %26 = tail call noalias ptr @H5MM_strdup(ptr noundef %0) #13
  %27 = icmp eq ptr %26, null
  br i1 %27, label %28, label %32

28:                                               ; preds = %25
  %29 = load i64, ptr @H5E_PLUGIN_g, align 8
  %30 = load i64, ptr @H5E_CANTALLOC_g, align 8
  %31 = tail call i32 (ptr, ptr, i32, i64, i64, ptr, ...) @H5E_printf_stack(ptr noundef nonnull @.str, ptr noundef nonnull @__func__.H5PL__insert_at, i32 noundef 121, i64 noundef %29, i64 noundef %30, ptr noundef nonnull @.str.17) #13
  br label %45

32:                                               ; preds = %25
  %33 = load ptr, ptr @H5PL_paths_g, align 8
  %34 = zext i32 %1 to i64
  %35 = getelementptr inbounds ptr, ptr %33, i64 %34
  %36 = load ptr, ptr %35, align 8
  %.not = icmp ne ptr %36, null
  %.pre = load i32, ptr @H5PL_num_paths_g, align 4
  %37 = icmp ugt i32 %.pre, %1
  %or.cond = select i1 %.not, i1 %37, i1 false
  br i1 %or.cond, label %.lr.ph.i, label %H5PL__make_space_at.exit

.lr.ph.i:                                         ; preds = %32
  %38 = zext i32 %.pre to i64
  br label %39

39:                                               ; preds = %39, %.lr.ph.i
  %indvars.iv.i = phi i64 [ %38, %.lr.ph.i ], [ %40, %39 ]
  %40 = add nsw i64 %indvars.iv.i, -1
  %41 = getelementptr inbounds ptr, ptr %33, i64 %40
  %42 = load ptr, ptr %41, align 8
  %43 = getelementptr inbounds ptr, ptr %33, i64 %indvars.iv.i
  store ptr %42, ptr %43, align 8
  %.wide.i = icmp ugt i64 %40, %34
  br i1 %.wide.i, label %39, label %H5PL__make_space_at.exit

H5PL__make_space_at.exit:                         ; preds = %39, %32
  store ptr %26, ptr %35, align 8
  %44 = add i32 %.pre, 1
  store i32 %44, ptr @H5PL_num_paths_g, align 4
  br label %45

45:                                               ; preds = %H5PL__make_space_at.exit, %28, %16
  %.0 = phi i32 [ -1, %16 ], [ -1, %28 ], [ 0, %H5PL__make_space_at.exit ]
  ret i32 %.0
}